target datalayout = "e-m:e-p270:32:32-p271:32:32-p272:64:64-i64:64-i128:128-f80:128-n8:16:32:64-S128"
target triple = "x86_64-pc-linux-gnu"

@hf_gadu_gadu_login_hash_type = internal global i32 0, align 4
@hf_gadu_gadu_login_hash = internal global i32 0, align 4
@hf_gadu_gadu_data = internal global i32 0, align 4
@.str.253 = private unnamed_addr constant [7 x i8] c"0x%.8x\00", align 1

; Function Attrs: null_pointer_is_valid sspstrong uwtable
define internal ptr @_tvb_memcpy_reverse(ptr noundef %0, ptr noundef %1, i32 noundef %2, i64 noundef %3) #0 {
  %5 = alloca ptr, align 8
  %6 = alloca ptr, align 8
  %7 = alloca i32, align 4
  %8 = alloca i64, align 8
  %9 = alloca ptr, align 8
  store ptr %0, ptr %5, align 8
  store ptr %1, ptr %6, align 8
  store i32 %2, ptr %7, align 4
  store i64 %3, ptr %8, align 8
  call void @llvm.lifetime.start.p0(i64 8, ptr %9) #6
  %10 = load ptr, ptr %6, align 8
  store ptr %10, ptr %9, align 8
  br label %11

11:                                               ; preds = %14, %4
  %12 = load i64, ptr %8, align 8
  %13 = icmp ugt i64 %12, 0
  br i1 %13, label %14, label %25

14:                                               ; preds = %11
  %15 = load i64, ptr %8, align 8
  %16 = add i64 %15, -1
  store i64 %16, ptr %8, align 8
  %17 = load ptr, ptr %5, align 8
  %18 = load i32, ptr %7, align 4
  %19 = call zeroext i8 @tvb_get_uint8(ptr noundef %17, i32 noundef %18)
  %20 = load ptr, ptr %9, align 8
  %21 = load i64, ptr %8, align 8
  %22 = getelementptr i8, ptr %20, i64 %21
  store i8 %19, ptr %22, align 1
  %23 = load i32, ptr %7, align 4
  %24 = add i32 %23, 1
  store i32 %24, ptr %7, align 4
  br label %11, !llvm.loop !14

25:                                               ; preds = %11
  %26 = load ptr, ptr %6, align 8
  call void @llvm.lifetime.end.p0(i64 8, ptr %9) #6
  ret ptr %26
}

; Function Attrs: null_pointer_is_valid sspstrong uwtable
define internal i32 @dissect_gadu_gadu_login_hash(ptr noundef %0, ptr noundef %1, i32 noundef %2) #0 {
  %4 = alloca ptr, align 8
  %5 = alloca ptr, align 8
  %6 = alloca i32, align 4
  %7 = alloca i8, align 1
  %8 = alloca [4 x i8], align 1
  %9 = alloca i32, align 4
  store ptr %0, ptr %4, align 8
  store ptr %1, ptr %5, align 8
  store i32 %2, ptr %6, align 4
  call void @llvm.lifetime.start.p0(i64 1, ptr %7) #6
  call void @llvm.lifetime.start.p0(i64 4, ptr %8) #6
  call void @llvm.lifetime.start.p0(i64 4, ptr %9) #6
  %10 = load ptr, ptr %4, align 8
  %11 = load i32, ptr %6, align 4
  %12 = call zeroext i8 @tvb_get_uint8(ptr noundef %10, i32 noundef %11)
  store i8 %12, ptr %7, align 1
  %13 = load ptr, ptr %5, align 8
  %14 = load i32, ptr @hf_gadu_gadu_login_hash_type, align 4
  %15 = load ptr, ptr %4, align 8
  %16 = load i32, ptr %6, align 4
  %17 = call ptr @proto_tree_add_item(ptr noundef %13, i32 noundef %14, ptr noundef %15, i32 noundef %16, i32 noundef 1, i32 noundef -2147483648)
  %18 = load i32, ptr %6, align 4
  %19 = add i32 %18, 1
  store i32 %19, ptr %6, align 4
  %20 = load i8, ptr %7, align 1
  %21 = zext i8 %20 to i32
  switch i32 %21, label %86 [
    i32 1, label %22
    i32 2, label %58
  ]

22:                                               ; preds = %3
  %23 = load ptr, ptr %4, align 8
  %24 = getelementptr inbounds [4 x i8], ptr %8, i64 0, i64 0
  %25 = load i32, ptr %6, align 4
  %26 = call ptr @_tvb_memcpy_reverse(ptr noundef %23, ptr noundef %24, i32 noundef %25, i64 noundef 4)
  %27 = load ptr, ptr %5, align 8
  %28 = load i32, ptr @hf_gadu_gadu_login_hash, align 4
  %29 = load ptr, ptr %4, align 8
  %30 = load i32, ptr %6, align 4
  %31 = getelementptr inbounds [4 x i8], ptr %8, i64 0, i64 0
  %32 = load ptr, ptr %4, align 8
  %33 = load i32, ptr %6, align 4
  %34 = call i32 @tvb_get_letohl(ptr noundef %32, i32 noundef %33)
  %35 = call ptr (ptr, i32, ptr, i32, i32, ptr, ptr, ...) @proto_tree_add_bytes_format_value(ptr noundef %27, i32 noundef %28, ptr noundef %29, i32 noundef %30, i32 noundef 4, ptr noundef %31, ptr noundef @.str.253, i32 noundef %34)
  store i32 4, ptr %9, align 4
  br label %36

36:                                               ; preds = %54, %22
  %37 = load i32, ptr %9, align 4
  %38 = icmp slt i32 %37, 64
  br i1 %38, label %39, label %57

39:                                               ; preds = %36
  %40 = load ptr, ptr %4, align 8
  %41 = load i32, ptr %6, align 4
  %42 = load i32, ptr %9, align 4
  %43 = add i32 %41, %42
  %44 = call zeroext i8 @tvb_get_uint8(ptr noundef %40, i32 noundef %43)
  %45 = icmp ne i8 %44, 0
  br i1 %45, label %46, label %53

46:                                               ; preds = %39
  %47 = load ptr, ptr %5, align 8
  %48 = load i32, ptr @hf_gadu_gadu_data, align 4
  %49 = load ptr, ptr %4, align 8
  %50 = load i32, ptr %6, align 4
  %51 = add i32 %50, 4
  %52 = call ptr @proto_tree_add_item(ptr noundef %47, i32 noundef %48, ptr noundef %49, i32 noundef %51, i32 noundef 60, i32 noundef 0)
  br label %57

53:                                               ; preds = %39
  br label %54

54:                                               ; preds = %53
  %55 = load i32, ptr %9, align 4
  %56 = add i32 %55, 1
  store i32 %56, ptr %9, align 4
  br label %36, !llvm.loop !15

57:                                               ; preds = %46, %36
  br label %92

58:                                               ; preds = %3
  %59 = load ptr, ptr %5, align 8
  %60 = load i32, ptr @hf_gadu_gadu_login_hash, align 4
  %61 = load ptr, ptr %4, align 8
  %62 = load i32, ptr %6, align 4
  %63 = call ptr @proto_tree_add_item(ptr noundef %59, i32 noundef %60, ptr noundef %61, i32 noundef %62, i32 noundef 20, i32 noundef 0)
  store i32 20, ptr %9, align 4
  br label %64

64:                                               ; preds = %82, %58
  %65 = load i32, ptr %9, align 4
  %66 = icmp slt i32 %65, 64
  br i1 %66, label %67, label %85

67:                                               ; preds = %64
  %68 = load ptr, ptr %4, align 8
  %69 = load i32, ptr %6, align 4
  %70 = load i32, ptr %9, align 4
  %71 = add i32 %69, %70
  %72 = call zeroext i8 @tvb_get_uint8(ptr noundef %68, i32 noundef %71)
  %73 = icmp ne i8 %72, 0
  br i1 %73, label %74, label %81

74:                                               ; preds = %67
  %75 = load ptr, ptr %5, align 8
  %76 = load i32, ptr @hf_gadu_gadu_data, align 4
  %77 = load ptr, ptr %4, align 8
  %78 = load i32, ptr %6, align 4
  %79 = add i32 %78, 20
  %80 = call ptr @proto_tree_add_item(ptr noundef %75, i32 noundef %76, ptr noundef %77, i32 noundef %79, i32 noundef 44, i32 noundef 0)
  br label %85

81:                                               ; preds = %67
  br label %82

82:                                               ; preds = %81
  %83 = load i32, ptr %9, align 4
  %84 = add i32 %83, 1
  store i32 %84, ptr %9, align 4
  br label %64, !llvm.loop !16

85:                                               ; preds = %74, %64
  br label %92

86:                                               ; preds = %3
  %87 = load ptr, ptr %5, align 8
  %88 = load i32, ptr @hf_gadu_gadu_data, align 4
  %89 = load ptr, ptr %4, align 8
  %90 = load i32, ptr %6, align 4
  %91 = call ptr @proto_tree_add_item(ptr noundef %87, i32 noundef %88, ptr noundef %89, i32 noundef %90, i32 noundef 64, i32 noundef 0)
  br label %92

92:                                               ; preds = %86, %85, %57
  %93 = load i32, ptr %6, align 4
  %94 = add i32 %93, 64
  store i32 %94, ptr %6, align 4
  %95 = load i32, ptr %6, align 4
  call void @llvm.lifetime.end.p0(i64 4, ptr %9) #6
  call void @llvm.lifetime.end.p0(i64 4, ptr %8) #6
  call void @llvm.lifetime.end.p0(i64 1, ptr %7) #6
  ret i32 %95
}