; Function Attrs: null_pointer_is_valid sspstrong uwtable
define internal fastcc range(i32 77, 80) i32 @dissect_gadu_gadu_login_hash(ptr noundef %0, ptr noundef %1, i32 noundef range(i32 12, 15) %2) unnamed_addr #0 {
  %4 = alloca [4 x i8], align 1
  call void @llvm.lifetime.start.p0(i64 4, ptr nonnull %4) #4
  %5 = tail call zeroext i8 @tvb_get_uint8(ptr noundef %0, i32 noundef %2)
  %6 = load i32, ptr @hf_gadu_gadu_login_hash_type, align 4
  %7 = tail call ptr @proto_tree_add_item(ptr noundef %1, i32 noundef %6, ptr noundef %0, i32 noundef %2, i32 noundef 1, i32 noundef -2147483648)
  %8 = add nuw nsw i32 %2, 1
  switch i8 %5, label %37 [
    i8 1, label %.preheader
    i8 2, label %25
  ]

.preheader:                                       ; preds = %3, %.preheader
  %.010.i = phi i32 [ %12, %.preheader ], [ %8, %3 ]
  %.089.i = phi i64 [ %9, %.preheader ], [ 4, %3 ]
  %9 = add nsw i64 %.089.i, -1
  %10 = tail call zeroext i8 @tvb_get_uint8(ptr noundef %0, i32 noundef %.010.i)
  %11 = getelementptr i8, ptr %4, i64 %9
  store i8 %10, ptr %11, align 1
  %12 = add nuw nsw i32 %.010.i, 1
  %.not.i = icmp eq i64 %9, 0
  br i1 %.not.i, label %_tvb_memcpy_reverse.exit, label %.preheader, !llvm.loop !13

_tvb_memcpy_reverse.exit:                         ; preds = %.preheader
  %13 = load i32, ptr @hf_gadu_gadu_login_hash, align 4
  %14 = tail call i32 @tvb_get_letohl(ptr noundef %0, i32 noundef %8)
  %15 = call ptr (ptr, i32, ptr, i32, i32, ptr, ptr, ...) @proto_tree_add_bytes_format_value(ptr noundef %1, i32 noundef %13, ptr noundef %0, i32 noundef %8, i32 noundef 4, ptr noundef nonnull %4, ptr noundef nonnull @.str.253, i32 noundef %14)
  br label %18

16:                                               ; preds = %18
  %17 = add nuw nsw i32 %.040, 1
  %exitcond42.not = icmp eq i32 %17, 64
  br i1 %exitcond42.not, label %.loopexit, label %18, !llvm.loop !15

18:                                               ; preds = %_tvb_memcpy_reverse.exit, %16
  %.040 = phi i32 [ 4, %_tvb_memcpy_reverse.exit ], [ %17, %16 ]
  %19 = add nuw nsw i32 %.040, %8
  %20 = call zeroext i8 @tvb_get_uint8(ptr noundef %0, i32 noundef %19)
  %.not37 = icmp eq i8 %20, 0
  br i1 %.not37, label %16, label %21

21:                                               ; preds = %18
  %22 = load i32, ptr @hf_gadu_gadu_data, align 4
  %23 = add nuw nsw i32 %2, 5
  %24 = call ptr @proto_tree_add_item(ptr noundef %1, i32 noundef %22, ptr noundef %0, i32 noundef %23, i32 noundef 60, i32 noundef 0)
  br label %.loopexit

25:                                               ; preds = %3
  %26 = load i32, ptr @hf_gadu_gadu_login_hash, align 4
  %27 = tail call ptr @proto_tree_add_item(ptr noundef %1, i32 noundef %26, ptr noundef %0, i32 noundef %8, i32 noundef 20, i32 noundef 0)
  br label %30

28:                                               ; preds = %30
  %29 = add nuw nsw i32 %.139, 1
  %exitcond.not = icmp eq i32 %29, 64
  br i1 %exitcond.not, label %.loopexit, label %30, !llvm.loop !16

30:                                               ; preds = %25, %28
  %.139 = phi i32 [ 20, %25 ], [ %29, %28 ]
  %31 = add nuw nsw i32 %.139, %8
  %32 = tail call zeroext i8 @tvb_get_uint8(ptr noundef %0, i32 noundef %31)
  %.not = icmp eq i8 %32, 0
  br i1 %.not, label %28, label %33

33:                                               ; preds = %30
  %34 = load i32, ptr @hf_gadu_gadu_data, align 4
  %35 = add nuw nsw i32 %2, 21
  %36 = tail call ptr @proto_tree_add_item(ptr noundef %1, i32 noundef %34, ptr noundef %0, i32 noundef %35, i32 noundef 44, i32 noundef 0)
  br label %.loopexit

37:                                               ; preds = %3
  %38 = load i32, ptr @hf_gadu_gadu_data, align 4
  %39 = tail call ptr @proto_tree_add_item(ptr noundef %1, i32 noundef %38, ptr noundef %0, i32 noundef %8, i32 noundef 64, i32 noundef 0)
  br label %.loopexit

.loopexit:                                        ; preds = %28, %16, %33, %21, %37
  %40 = add nuw nsw i32 %2, 65
  call void @llvm.lifetime.end.p0(i64 4, ptr nonnull %4) #4
  ret i32 %40
}